target datalayout = "e-m:e-p270:32:32-p271:32:32-p272:64:64-i64:64-i128:128-f80:128-n8:16:32:64-S128"
target triple = "x86_64-pc-linux-gnu"

%struct.ImVec4 = type { float, float, float, float }
%struct.ImVector = type { i32, i32, ptr }
%struct.ImDrawList = type { %struct.ImVector.0, %struct.ImVector.1, %struct.ImVector.2, i32, i32, ptr, ptr, ptr, %struct.ImVector, %struct.ImDrawCmdHeader, %struct.ImDrawListSplitter, %struct.ImVector.4, %struct.ImVector.5, %struct.ImVector.6, float, ptr }
%struct.ImVector.0 = type { i32, i32, ptr }
%struct.ImVector.1 = type { i32, i32, ptr }
%struct.ImVector.2 = type { i32, i32, ptr }
%struct.ImDrawCmdHeader = type <{ %struct.ImVec4, i64, i32, [4 x i8] }>
%struct.ImDrawListSplitter = type { i32, i32, %struct.ImVector.3 }
%struct.ImVector.3 = type { i32, i32, ptr }
%struct.ImVector.4 = type { i32, i32, ptr }
%struct.ImVector.5 = type { i32, i32, ptr }
%struct.ImVector.6 = type { i32, i32, ptr }
%struct.ImDrawCmd = type { %struct.ImVec4, i64, i32, i32, i32, ptr, ptr, i32, i32 }

; Function Attrs: inlinehint mustprogress uwtable
define linkonce_odr void @_ZN8ImVectorI9ImDrawCmdE7reserveEi(ptr noundef nonnull align 8 dereferenceable(16) %0, i32 noundef %1) #5 comdat align 2 {
  %3 = alloca ptr, align 8
  %4 = alloca i32, align 4
  %5 = alloca ptr, align 8
  store ptr %0, ptr %3, align 8, !tbaa !63
  store i32 %1, ptr %4, align 4, !tbaa !27
  %6 = load ptr, ptr %3, align 8
  %7 = load i32, ptr %4, align 4, !tbaa !27
  %8 = getelementptr inbounds nuw %struct.ImVector.0, ptr %6, i32 0, i32 1
  %9 = load i32, ptr %8, align 4, !tbaa !65
  %10 = icmp sle i32 %7, %9
  br i1 %10, label %11, label %12

11:                                               ; preds = %2
  br label %35

12:                                               ; preds = %2
  call void @llvm.lifetime.start.p0(i64 8, ptr %5) #17
  %13 = load i32, ptr %4, align 4, !tbaa !27
  %14 = sext i32 %13 to i64
  %15 = mul i64 %14, 64
  %16 = call noundef ptr @_ZN5ImGui8MemAllocEm(i64 noundef %15)
  store ptr %16, ptr %5, align 8, !tbaa !106
  %17 = getelementptr inbounds nuw %struct.ImVector.0, ptr %6, i32 0, i32 2
  %18 = load ptr, ptr %17, align 8, !tbaa !67
  %19 = icmp ne ptr %18, null
  br i1 %19, label %20, label %30

20:                                               ; preds = %12
  %21 = load ptr, ptr %5, align 8, !tbaa !106
  %22 = getelementptr inbounds nuw %struct.ImVector.0, ptr %6, i32 0, i32 2
  %23 = load ptr, ptr %22, align 8, !tbaa !67
  %24 = getelementptr inbounds nuw %struct.ImVector.0, ptr %6, i32 0, i32 0
  %25 = load i32, ptr %24, align 8, !tbaa !66
  %26 = sext i32 %25 to i64
  %27 = mul i64 %26, 64
  call void @llvm.memcpy.p0.p0.i64(ptr align 8 %21, ptr align 8 %23, i64 %27, i1 false)
  %28 = getelementptr inbounds nuw %struct.ImVector.0, ptr %6, i32 0, i32 2
  %29 = load ptr, ptr %28, align 8, !tbaa !67
  call void @_ZN5ImGui7MemFreeEPv(ptr noundef %29)
  br label %30

30:                                               ; preds = %20, %12
  %31 = load ptr, ptr %5, align 8, !tbaa !106
  %32 = getelementptr inbounds nuw %struct.ImVector.0, ptr %6, i32 0, i32 2
  store ptr %31, ptr %32, align 8, !tbaa !67
  %33 = load i32, ptr %4, align 4, !tbaa !27
  %34 = getelementptr inbounds nuw %struct.ImVector.0, ptr %6, i32 0, i32 1
  store i32 %33, ptr %34, align 4, !tbaa !65
  call void @llvm.lifetime.end.p0(i64 8, ptr %5) #17
  br label %35

35:                                               ; preds = %30, %11
  ret void
}

; Function Attrs: inlinehint mustprogress nounwind uwtable
define linkonce_odr noundef i32 @_ZNK8ImVectorI9ImDrawCmdE14_grow_capacityEi(ptr noundef nonnull align 8 dereferenceable(16) %0, i32 noundef %1) #7 comdat align 2 {
  %3 = alloca ptr, align 8
  %4 = alloca i32, align 4
  %5 = alloca i32, align 4
  store ptr %0, ptr %3, align 8, !tbaa !63
  store i32 %1, ptr %4, align 4, !tbaa !27
  %6 = load ptr, ptr %3, align 8
  call void @llvm.lifetime.start.p0(i64 4, ptr %5) #17
  %7 = getelementptr inbounds nuw %struct.ImVector.0, ptr %6, i32 0, i32 1
  %8 = load i32, ptr %7, align 4, !tbaa !65
  %9 = icmp ne i32 %8, 0
  br i1 %9, label %10, label %17

10:                                               ; preds = %2
  %11 = getelementptr inbounds nuw %struct.ImVector.0, ptr %6, i32 0, i32 1
  %12 = load i32, ptr %11, align 4, !tbaa !65
  %13 = getelementptr inbounds nuw %struct.ImVector.0, ptr %6, i32 0, i32 1
  %14 = load i32, ptr %13, align 4, !tbaa !65
  %15 = sdiv i32 %14, 2
  %16 = add nsw i32 %12, %15
  br label %18

17:                                               ; preds = %2
  br label %18

18:                                               ; preds = %17, %10
  %19 = phi i32 [ %16, %10 ], [ 8, %17 ]
  store i32 %19, ptr %5, align 4, !tbaa !27
  %20 = load i32, ptr %5, align 4, !tbaa !27
  %21 = load i32, ptr %4, align 4, !tbaa !27
  %22 = icmp sgt i32 %20, %21
  br i1 %22, label %23, label %25

23:                                               ; preds = %18
  %24 = load i32, ptr %5, align 4, !tbaa !27
  br label %27

25:                                               ; preds = %18
  %26 = load i32, ptr %4, align 4, !tbaa !27
  br label %27

27:                                               ; preds = %25, %23
  %28 = phi i32 [ %24, %23 ], [ %26, %25 ]
  call void @llvm.lifetime.end.p0(i64 4, ptr %5) #17
  ret i32 %28
}

; Function Attrs: mustprogress nounwind uwtable
define linkonce_odr void @_ZN6ImVec4C2Ev(ptr noundef nonnull align 4 dereferenceable(16) %0) unnamed_addr #3 comdat align 2 {
  %2 = alloca ptr, align 8
  store ptr %0, ptr %2, align 8, !tbaa !8
  %3 = load ptr, ptr %2, align 8
  %4 = getelementptr inbounds nuw %struct.ImVec4, ptr %3, i32 0, i32 0
  store float 0.000000e+00, ptr %4, align 4, !tbaa !13
  %5 = getelementptr inbounds nuw %struct.ImVec4, ptr %3, i32 0, i32 1
  store float 0.000000e+00, ptr %5, align 4, !tbaa !15
  %6 = getelementptr inbounds nuw %struct.ImVec4, ptr %3, i32 0, i32 2
  store float 0.000000e+00, ptr %6, align 4, !tbaa !16
  %7 = getelementptr inbounds nuw %struct.ImVec4, ptr %3, i32 0, i32 3
  store float 0.000000e+00, ptr %7, align 4, !tbaa !17
  ret void
}

; Function Attrs: inlinehint mustprogress uwtable
define linkonce_odr void @_ZN8ImVectorI9ImDrawCmdE9push_backERKS0_(ptr noundef nonnull align 8 dereferenceable(16) %0, ptr noundef nonnull align 8 dereferenceable(64) %1) #5 comdat align 2 {
  %3 = alloca ptr, align 8
  %4 = alloca ptr, align 8
  store ptr %0, ptr %3, align 8, !tbaa !63
  store ptr %1, ptr %4, align 8, !tbaa !106
  %5 = load ptr, ptr %3, align 8
  %6 = getelementptr inbounds nuw %struct.ImVector.0, ptr %5, i32 0, i32 0
  %7 = load i32, ptr %6, align 8, !tbaa !66
  %8 = getelementptr inbounds nuw %struct.ImVector.0, ptr %5, i32 0, i32 1
  %9 = load i32, ptr %8, align 4, !tbaa !65
  %10 = icmp eq i32 %7, %9
  br i1 %10, label %11, label %16

11:                                               ; preds = %2
  %12 = getelementptr inbounds nuw %struct.ImVector.0, ptr %5, i32 0, i32 0
  %13 = load i32, ptr %12, align 8, !tbaa !66
  %14 = add nsw i32 %13, 1
  %15 = call noundef i32 @_ZNK8ImVectorI9ImDrawCmdE14_grow_capacityEi(ptr noundef nonnull align 8 dereferenceable(16) %5, i32 noundef %14)
  call void @_ZN8ImVectorI9ImDrawCmdE7reserveEi(ptr noundef nonnull align 8 dereferenceable(16) %5, i32 noundef %15)
  br label %16

16:                                               ; preds = %11, %2
  %17 = getelementptr inbounds nuw %struct.ImVector.0, ptr %5, i32 0, i32 2
  %18 = load ptr, ptr %17, align 8, !tbaa !67
  %19 = getelementptr inbounds nuw %struct.ImVector.0, ptr %5, i32 0, i32 0
  %20 = load i32, ptr %19, align 8, !tbaa !66
  %21 = sext i32 %20 to i64
  %22 = getelementptr inbounds %struct.ImDrawCmd, ptr %18, i64 %21
  %23 = load ptr, ptr %4, align 8, !tbaa !106
  call void @llvm.memcpy.p0.p0.i64(ptr align 8 %22, ptr align 8 %23, i64 64, i1 false)
  %24 = getelementptr inbounds nuw %struct.ImVector.0, ptr %5, i32 0, i32 0
  %25 = load i32, ptr %24, align 8, !tbaa !66
  %26 = add nsw i32 %25, 1
  store i32 %26, ptr %24, align 8, !tbaa !66
  ret void
}

; Function Attrs: mustprogress uwtable
define linkonce_odr void @_ZN9ImDrawCmdC2Ev(ptr noundef nonnull align 8 dereferenceable(64) %0) unnamed_addr #6 comdat align 2 {
  %2 = alloca ptr, align 8
  store ptr %0, ptr %2, align 8, !tbaa !106
  %3 = load ptr, ptr %2, align 8
  %4 = getelementptr inbounds nuw %struct.ImDrawCmd, ptr %3, i32 0, i32 0
  call void @_ZN6ImVec4C2Ev(ptr noundef nonnull align 4 dereferenceable(16) %4)
  call void @llvm.memset.p0.i64(ptr align 8 %3, i8 0, i64 64, i1 false)
  ret void
}

; Function Attrs: mustprogress uwtable
define void @_ZN10ImDrawList10AddDrawCmdEv(ptr noundef nonnull align 8 dereferenceable(216) %0) #6 align 2 {
  %2 = alloca ptr, align 8
  %3 = alloca %struct.ImDrawCmd, align 8
  store ptr %0, ptr %2, align 8, !tbaa !43
  %4 = load ptr, ptr %2, align 8
  call void @llvm.lifetime.start.p0(i64 64, ptr %3) #17
  call void @_ZN9ImDrawCmdC2Ev(ptr noundef nonnull align 8 dereferenceable(64) %3)
  %5 = getelementptr inbounds nuw %struct.ImDrawList, ptr %4, i32 0, i32 9
  %6 = getelementptr inbounds nuw %struct.ImDrawCmdHeader, ptr %5, i32 0, i32 0
  %7 = getelementptr inbounds nuw %struct.ImDrawCmd, ptr %3, i32 0, i32 0
  call void @llvm.memcpy.p0.p0.i64(ptr align 8 %7, ptr align 8 %6, i64 16, i1 false), !tbaa.struct !10
  %8 = getelementptr inbounds nuw %struct.ImDrawList, ptr %4, i32 0, i32 9
  %9 = getelementptr inbounds nuw %struct.ImDrawCmdHeader, ptr %8, i32 0, i32 1
  %10 = load i64, ptr %9, align 8, !tbaa !130
  %11 = getelementptr inbounds nuw %struct.ImDrawCmd, ptr %3, i32 0, i32 1
  store i64 %10, ptr %11, align 8, !tbaa !131
  %12 = getelementptr inbounds nuw %struct.ImDrawList, ptr %4, i32 0, i32 9
  %13 = getelementptr inbounds nuw %struct.ImDrawCmdHeader, ptr %12, i32 0, i32 2
  %14 = load i32, ptr %13, align 8, !tbaa !132
  %15 = getelementptr inbounds nuw %struct.ImDrawCmd, ptr %3, i32 0, i32 2
  store i32 %14, ptr %15, align 8, !tbaa !133
  %16 = getelementptr inbounds nuw %struct.ImDrawList, ptr %4, i32 0, i32 1
  %17 = getelementptr inbounds nuw %struct.ImVector.1, ptr %16, i32 0, i32 0
  %18 = load i32, ptr %17, align 8, !tbaa !118
  %19 = getelementptr inbounds nuw %struct.ImDrawCmd, ptr %3, i32 0, i32 3
  store i32 %18, ptr %19, align 4, !tbaa !107
  %20 = getelementptr inbounds nuw %struct.ImDrawList, ptr %4, i32 0, i32 0
  call void @_ZN8ImVectorI9ImDrawCmdE9push_backERKS0_(ptr noundef nonnull align 8 dereferenceable(16) %20, ptr noundef nonnull align 8 dereferenceable(64) %3)
  call void @llvm.lifetime.end.p0(i64 64, ptr %3) #17
  ret void
}