; Function Attrs: mustprogress uwtable
define void @_ZN10ImDrawList10AddDrawCmdEv(ptr noundef nonnull align 8 captures(none) dereferenceable(216) %0) local_unnamed_addr #12 align 2 {
  %.sroa.0 = alloca %struct.ImVec4, align 8
  call void @llvm.lifetime.start.p0(i64 16, ptr nonnull %.sroa.0)
  %2 = getelementptr inbounds nuw i8, ptr %0, i64 96
  call void @llvm.memcpy.p0.p0.i64(ptr noundef nonnull align 8 dereferenceable(16) %.sroa.0, ptr noundef nonnull align 8 dereferenceable(16) %2, i64 16, i1 false), !tbaa.struct !7
  %3 = getelementptr inbounds nuw i8, ptr %0, i64 112
  %4 = load i64, ptr %3, align 8, !tbaa !90
  %5 = getelementptr inbounds nuw i8, ptr %0, i64 120
  %6 = load i32, ptr %5, align 8, !tbaa !91
  %7 = getelementptr inbounds nuw i8, ptr %0, i64 16
  %8 = load i32, ptr %7, align 8, !tbaa !79
  %9 = load i32, ptr %0, align 8, !tbaa !53
  %10 = getelementptr inbounds nuw i8, ptr %0, i64 4
  %11 = load i32, ptr %10, align 4, !tbaa !52
  %12 = icmp eq i32 %9, %11
  br i1 %12, label %13, label %._ZN8ImVectorI9ImDrawCmdE7reserveEi.exit_crit_edge.i

._ZN8ImVectorI9ImDrawCmdE7reserveEi.exit_crit_edge.i: ; preds = %1
  %.phi.trans.insert.i = getelementptr inbounds nuw i8, ptr %0, i64 8
  %.pre.i = load ptr, ptr %.phi.trans.insert.i, align 8, !tbaa !51
  br label %_ZN8ImVectorI9ImDrawCmdE9push_backERKS0_.exit

13:                                               ; preds = %1
  %14 = add nsw i32 %9, 1
  %.not.i.i = icmp eq i32 %9, 0
  br i1 %.not.i.i, label %_ZNK8ImVectorI9ImDrawCmdE14_grow_capacityEi.exit.i, label %15

15:                                               ; preds = %13
  %16 = sdiv i32 %9, 2
  %17 = add nsw i32 %16, %9
  br label %_ZNK8ImVectorI9ImDrawCmdE14_grow_capacityEi.exit.i

_ZNK8ImVectorI9ImDrawCmdE14_grow_capacityEi.exit.i: ; preds = %15, %13
  %18 = phi i32 [ %17, %15 ], [ 8, %13 ]
  %19 = tail call noundef i32 @llvm.smax.i32(i32 %18, i32 %14)
  %20 = sext i32 %19 to i64
  %21 = shl nsw i64 %20, 6
  %22 = tail call noundef ptr @_ZN5ImGui8MemAllocEm(i64 noundef %21)
  %23 = getelementptr inbounds nuw i8, ptr %0, i64 8
  %24 = load ptr, ptr %23, align 8, !tbaa !51
  %.not6.i.i = icmp eq ptr %24, null
  br i1 %.not6.i.i, label %30, label %25

25:                                               ; preds = %_ZNK8ImVectorI9ImDrawCmdE14_grow_capacityEi.exit.i
  %26 = load i32, ptr %0, align 8, !tbaa !53
  %27 = sext i32 %26 to i64
  %28 = shl nsw i64 %27, 6
  tail call void @llvm.memcpy.p0.p0.i64(ptr align 8 %22, ptr nonnull align 8 %24, i64 %28, i1 false)
  %29 = load ptr, ptr %23, align 8, !tbaa !51
  tail call void @_ZN5ImGui7MemFreeEPv(ptr noundef %29)
  br label %30

30:                                               ; preds = %25, %_ZNK8ImVectorI9ImDrawCmdE14_grow_capacityEi.exit.i
  store ptr %22, ptr %23, align 8, !tbaa !51
  store i32 %19, ptr %10, align 4, !tbaa !52
  %.pre3.i = load i32, ptr %0, align 8, !tbaa !53
  br label %_ZN8ImVectorI9ImDrawCmdE9push_backERKS0_.exit

_ZN8ImVectorI9ImDrawCmdE9push_backERKS0_.exit:    ; preds = %._ZN8ImVectorI9ImDrawCmdE7reserveEi.exit_crit_edge.i, %30
  %31 = phi i32 [ %9, %._ZN8ImVectorI9ImDrawCmdE7reserveEi.exit_crit_edge.i ], [ %.pre3.i, %30 ]
  %32 = phi ptr [ %.pre.i, %._ZN8ImVectorI9ImDrawCmdE7reserveEi.exit_crit_edge.i ], [ %22, %30 ]
  %33 = sext i32 %31 to i64
  %34 = getelementptr inbounds %struct.ImDrawCmd, ptr %32, i64 %33
  call void @llvm.memcpy.p0.p0.i64(ptr noundef nonnull align 8 dereferenceable(16) %34, ptr noundef nonnull align 8 dereferenceable(16) %.sroa.0, i64 16, i1 false)
  %.sroa.5.0..sroa_idx = getelementptr inbounds nuw i8, ptr %34, i64 16
  store i64 %4, ptr %.sroa.5.0..sroa_idx, align 8
  %.sroa.6.0..sroa_idx = getelementptr inbounds nuw i8, ptr %34, i64 24
  store i32 %6, ptr %.sroa.6.0..sroa_idx, align 8
  %.sroa.7.0..sroa_idx = getelementptr inbounds nuw i8, ptr %34, i64 28
  store i32 %8, ptr %.sroa.7.0..sroa_idx, align 4
  %.sroa.8.0..sroa_idx = getelementptr inbounds nuw i8, ptr %34, i64 32
  tail call void @llvm.memset.p0.i64(ptr noundef nonnull align 8 dereferenceable(32) %.sroa.8.0..sroa_idx, i8 0, i64 32, i1 false)
  %35 = load i32, ptr %0, align 8, !tbaa !53
  %36 = add nsw i32 %35, 1
  store i32 %36, ptr %0, align 8, !tbaa !53
  call void @llvm.lifetime.end.p0(i64 16, ptr nonnull %.sroa.0)
  ret void
}